; Function Attrs: mustprogress uwtable
define hidden noundef nonnull align 8 dereferenceable(8) ptr @_ZN4cvc58internal7optionslsERSoNS1_17PartitionWhenModeE(ptr noundef nonnull align 8 dereferenceable(8) %os, i32 noundef %mode) local_unnamed_addr #3 personality ptr @__gxx_personality_v0 {
entry:
  %ref.tmp = alloca %"class.cvc5::internal::FatalStream", align 1
  switch i32 %mode, label %sw.default [
    i32 0, label %return
    i32 1, label %sw.bb1
  ]

sw.bb1:                                           ; preds = %entry
  br label %return

sw.default:                                       ; preds = %entry
  call void @_ZN4cvc58internal11FatalStreamC1EPKcS3_i(ptr noundef nonnull align 1 dereferenceable(1) %ref.tmp, ptr noundef nonnull @__PRETTY_FUNCTION__._ZN4cvc58internal7optionslsERSoNS1_17PartitionWhenModeE, ptr noundef nonnull @.str.2, i32 noundef 111)
  %call3 = invoke noundef nonnull align 8 dereferenceable(8) ptr @_ZN4cvc58internal11FatalStream6streamEv(ptr noundef nonnull align 1 dereferenceable(1) %ref.tmp)
          to label %invoke.cont unwind label %lpad

invoke.cont:                                      ; preds = %sw.default
  %call5 = invoke noundef nonnull align 8 dereferenceable(8) ptr @_ZStlsISt11char_traitsIcEERSt13basic_ostreamIcT_ES5_PKc(ptr noundef nonnull align 8 dereferenceable(8) %call3, ptr noundef nonnull @.str.3)
          to label %invoke.cont4 unwind label %lpad

invoke.cont4:                                     ; preds = %invoke.cont
  call void @_ZN4cvc58internal11FatalStreamD1Ev(ptr noundef nonnull align 1 dereferenceable(1) %ref.tmp) #11
  unreachable

lpad:                                             ; preds = %invoke.cont, %sw.default
  %0 = landingpad { ptr, i32 }
          cleanup
  call void @_ZN4cvc58internal11FatalStreamD1Ev(ptr noundef nonnull align 1 dereferenceable(1) %ref.tmp) #11
  unreachable

return:                                           ; preds = %entry, %sw.bb1
  %.str.18.sink = phi ptr [ @.str.18, %sw.bb1 ], [ @.str.17, %entry ]
  %call2 = tail call noundef nonnull align 8 dereferenceable(8) ptr @_ZStlsISt11char_traitsIcEERSt13basic_ostreamIcT_ES5_PKc(ptr noundef nonnull align 8 dereferenceable(8) %os, ptr noundef nonnull %.str.18.sink)
  ret ptr %call2
}